; Function Attrs: nounwind uwtable
define ptr @l_Std_DHashMap_Internal_AssocList_get_x3f___at_Lake_importModulesUsingCache___spec__10(ptr noundef readonly captures(none) %0, ptr noundef %1) local_unnamed_addr #0 {
  %3 = getelementptr i8, ptr %0, i64 8
  br label %lean_dec.exit

lean_dec.exit:                                    ; preds = %lean_dec.exit.backedge, %2
  %.025 = phi ptr [ %1, %2 ], [ %16, %lean_dec.exit.backedge ]
  %4 = ptrtoint ptr %.025 to i64
  %5 = and i64 %4, 1
  %.not.i34 = icmp eq i64 %5, 0
  br i1 %.not.i34, label %9, label %6

6:                                                ; preds = %lean_dec.exit
  %7 = lshr i64 %4, 1
  %8 = trunc i64 %7 to i32
  br label %lean_obj_tag.exit

9:                                                ; preds = %lean_dec.exit
  %10 = getelementptr i8, ptr %.025, i64 4
  %.val.i = load i32, ptr %10, align 4
  %11 = lshr i32 %.val.i, 24
  br label %lean_obj_tag.exit

lean_obj_tag.exit:                                ; preds = %6, %9
  %.0.i35 = phi i32 [ %8, %6 ], [ %11, %9 ]
  %12 = icmp eq i32 %.0.i35, 0
  br i1 %12, label %.loopexit, label %lean_dec.exit30

lean_dec.exit30:                                  ; preds = %lean_obj_tag.exit
  %13 = getelementptr inbounds nuw i8, ptr %.025, i64 8
  %14 = load ptr, ptr %13, align 8, !tbaa !4
  %15 = getelementptr inbounds nuw i8, ptr %.025, i64 24
  %16 = load ptr, ptr %15, align 8, !tbaa !4
  %17 = getelementptr i8, ptr %14, i64 8
  %.val33 = load i64, ptr %17, align 8, !tbaa !13
  %18 = shl i64 %.val33, 1
  %.val = load i64, ptr %3, align 8, !tbaa !13
  %19 = shl i64 %.val, 1
  %.not = icmp eq i64 %18, %19
  br i1 %.not, label %20, label %lean_dec.exit.backedge

lean_dec.exit.backedge:                           ; preds = %lean_dec.exit30, %20
  br label %lean_dec.exit

20:                                               ; preds = %lean_dec.exit30
  %21 = getelementptr inbounds nuw i8, ptr %.025, i64 16
  %22 = load ptr, ptr %21, align 8, !tbaa !4
  %23 = or disjoint i64 %18, 1
  %24 = inttoptr i64 %23 to ptr
  %25 = tail call zeroext i8 @l_Array_isEqvAux___at_Lake_importModulesUsingCache___spec__11(ptr nonnull poison, ptr nonnull poison, ptr nonnull poison, ptr noundef nonnull %14, ptr noundef nonnull %0, ptr noundef nonnull %24, ptr nonnull poison)
  %26 = icmp eq i8 %25, 0
  br i1 %26, label %lean_dec.exit.backedge, label %27

27:                                               ; preds = %20
  %28 = ptrtoint ptr %22 to i64
  %29 = and i64 %28, 1
  %.not43 = icmp eq i64 %29, 0
  br i1 %.not43, label %30, label %lean_inc.exit

30:                                               ; preds = %27
  %.val.i36 = load i32, ptr %22, align 4, !tbaa !9
  %31 = icmp sgt i32 %.val.i36, 0
  br i1 %31, label %32, label %34, !prof !12

32:                                               ; preds = %30
  %33 = add nuw i32 %.val.i36, 1
  store i32 %33, ptr %22, align 4, !tbaa !9
  br label %lean_inc.exit

34:                                               ; preds = %30
  %.not.i37 = icmp eq i32 %.val.i36, 0
  br i1 %.not.i37, label %lean_inc.exit, label %35

35:                                               ; preds = %34
  tail call void @lean_inc_ref_cold(ptr noundef nonnull %22) #5
  br label %lean_inc.exit

lean_inc.exit:                                    ; preds = %35, %34, %32, %27
  tail call void @lean_inc_heartbeat() #5
  %36 = tail call noalias ptr @mi_malloc_small(i64 noundef 16) #5
  %37 = icmp eq ptr %36, null
  br i1 %37, label %38, label %lean_dec.exit.thread

38:                                               ; preds = %lean_inc.exit
  tail call void @lean_internal_panic_out_of_memory() #6
  unreachable

lean_dec.exit.thread:                             ; preds = %lean_inc.exit
  %39 = getelementptr inbounds nuw i8, ptr %36, i64 4
  store i32 1, ptr %36, align 4, !tbaa !9
  store i32 16842768, ptr %39, align 4
  %40 = getelementptr inbounds nuw i8, ptr %36, i64 8
  store ptr %22, ptr %40, align 8, !tbaa !4
  br label %.loopexit

.loopexit:                                        ; preds = %lean_obj_tag.exit, %lean_dec.exit.thread
  %.1 = phi ptr [ %36, %lean_dec.exit.thread ], [ inttoptr (i64 1 to ptr), %lean_obj_tag.exit ]
  ret ptr %.1
}